target datalayout = "e-m:e-p270:32:32-p271:32:32-p272:64:64-i64:64-i128:128-f80:128-n8:16:32:64-S128"
target triple = "x86_64-pc-linux-gnu"

%"class.cv::detail::tracking::TrackerStateEstimatorAdaBoosting::TrackerAdaBoostingTargetState" = type { %"class.cv::detail::tracking::TrackerTargetState", i8, %"class.cv::Mat" }
%"class.cv::detail::tracking::TrackerTargetState" = type { ptr, %"class.cv::Point_", i32, i32 }
%"class.cv::Point_" = type { float, float }
%"class.cv::Mat" = type { i32, i32, i32, i32, ptr, ptr, ptr, ptr, ptr, ptr, %"struct.cv::MatSize", %"struct.cv::MatStep" }
%"struct.cv::MatSize" = type { ptr }
%"struct.cv::MatStep" = type { ptr, [2 x i64] }

@_ZTVN2cv6detail8tracking18TrackerTargetStateE = linkonce_odr unnamed_addr constant { [4 x ptr] } { [4 x ptr] [ptr null, ptr @_ZTIN2cv6detail8tracking18TrackerTargetStateE, ptr @_ZN2cv6detail8tracking18TrackerTargetStateD2Ev, ptr @_ZN2cv6detail8tracking18TrackerTargetStateD0Ev] }, comdat, align 8

; Function Attrs: mustprogress nounwind uwtable
define linkonce_odr hidden void @_ZN2cv6Point_IfEC2Ev(ptr noundef nonnull align 4 dereferenceable(8) %0) unnamed_addr #7 comdat align 2 {
  %2 = alloca ptr, align 8
  store ptr %0, ptr %2, align 8
  %3 = load ptr, ptr %2, align 8
  %4 = getelementptr inbounds %"class.cv::Point_", ptr %3, i32 0, i32 0
  store float 0.000000e+00, ptr %4, align 4
  %5 = getelementptr inbounds %"class.cv::Point_", ptr %3, i32 0, i32 1
  store float 0.000000e+00, ptr %5, align 4
  ret void
}

; Function Attrs: mustprogress nounwind uwtable
define linkonce_odr hidden void @_ZN2cv6detail8tracking18TrackerTargetStateD2Ev(ptr noundef nonnull align 8 dereferenceable(24) %0) unnamed_addr #7 comdat align 2 {
  %2 = alloca ptr, align 8
  store ptr %0, ptr %2, align 8
  ret void
}

; Function Attrs: mustprogress uwtable
define void @_ZN2cv6detail8tracking32TrackerStateEstimatorAdaBoosting29TrackerAdaBoostingTargetState18setTargetResponsesERKNS_3MatE(ptr noundef nonnull align 8 dereferenceable(128) %0, ptr noundef nonnull align 8 dereferenceable(96) %1) #4 align 2 {
  %3 = alloca ptr, align 8
  %4 = alloca ptr, align 8
  store ptr %0, ptr %3, align 8
  store ptr %1, ptr %4, align 8
  %5 = load ptr, ptr %3, align 8
  %6 = load ptr, ptr %4, align 8
  %7 = getelementptr inbounds %"class.cv::detail::tracking::TrackerStateEstimatorAdaBoosting::TrackerAdaBoostingTargetState", ptr %5, i32 0, i32 2
  %8 = call noundef nonnull align 8 dereferenceable(96) ptr @_ZN2cv3MataSERKS0_(ptr noundef nonnull align 8 dereferenceable(96) %7, ptr noundef nonnull align 8 dereferenceable(96) %6)
  ret void
}

; Function Attrs: mustprogress nounwind uwtable
define void @_ZN2cv6detail8tracking32TrackerStateEstimatorAdaBoosting29TrackerAdaBoostingTargetState11setTargetFgEb(ptr noundef nonnull align 8 dereferenceable(128) %0, i1 noundef zeroext %1) #7 align 2 {
  %3 = alloca ptr, align 8
  %4 = alloca i8, align 1
  store ptr %0, ptr %3, align 8
  %5 = zext i1 %1 to i8
  store i8 %5, ptr %4, align 1
  %6 = load ptr, ptr %3, align 8
  %7 = load i8, ptr %4, align 1
  %8 = trunc i8 %7 to i1
  %9 = getelementptr inbounds %"class.cv::detail::tracking::TrackerStateEstimatorAdaBoosting::TrackerAdaBoostingTargetState", ptr %6, i32 0, i32 1
  %10 = zext i1 %8 to i8
  store i8 %10, ptr %9, align 8
  ret void
}

; Function Attrs: mustprogress uwtable
define linkonce_odr hidden void @_ZN2cv6detail8tracking18TrackerTargetStateC2Ev(ptr noundef nonnull align 8 dereferenceable(24) %0) unnamed_addr #4 comdat align 2 {
  %2 = alloca ptr, align 8
  store ptr %0, ptr %2, align 8
  %3 = load ptr, ptr %2, align 8
  store ptr getelementptr inbounds inrange(-16, 16) ({ [4 x ptr] }, ptr @_ZTVN2cv6detail8tracking18TrackerTargetStateE, i32 0, i32 0, i32 2), ptr %3, align 8
  %4 = getelementptr inbounds %"class.cv::detail::tracking::TrackerTargetState", ptr %3, i32 0, i32 1
  call void @_ZN2cv6Point_IfEC2Ev(ptr noundef nonnull align 4 dereferenceable(8) %4)
  ret void
}

; Function Attrs: mustprogress uwtable
define void @_ZN2cv6detail8tracking32TrackerStateEstimatorAdaBoosting29TrackerAdaBoostingTargetStateC2ERKNS_6Point_IfEEiibRKNS_3MatE(ptr noundef nonnull align 8 dereferenceable(128) %0, ptr noundef nonnull align 4 dereferenceable(8) %1, i32 noundef %2, i32 noundef %3, i1 noundef zeroext %4, ptr noundef nonnull align 8 dereferenceable(96) %5) unnamed_addr #4 align 2 personality ptr @__gxx_personality_v0 {
  %7 = alloca ptr, align 8
  %8 = alloca ptr, align 8
  %9 = alloca i32, align 4
  %10 = alloca i32, align 4
  %11 = alloca i8, align 1
  %12 = alloca ptr, align 8
  %13 = alloca ptr, align 8
  %14 = alloca i32, align 4
  store ptr %0, ptr %7, align 8
  store ptr %1, ptr %8, align 8
  store i32 %2, ptr %9, align 4
  store i32 %3, ptr %10, align 4
  %15 = zext i1 %4 to i8
  store i8 %15, ptr %11, align 1
  store ptr %5, ptr %12, align 8
  %16 = load ptr, ptr %7, align 8
  call void @_ZN2cv6detail8tracking18TrackerTargetStateC2Ev(ptr noundef nonnull align 8 dereferenceable(24) %16)
  store ptr getelementptr inbounds inrange(-16, 16) ({ [4 x ptr] }, ptr @_ZTVN2cv6detail8tracking32TrackerStateEstimatorAdaBoosting29TrackerAdaBoostingTargetStateE, i32 0, i32 0, i32 2), ptr %16, align 8
  %17 = getelementptr inbounds %"class.cv::detail::tracking::TrackerStateEstimatorAdaBoosting::TrackerAdaBoostingTargetState", ptr %16, i32 0, i32 2
  call void @_ZN2cv3MatC1Ev(ptr noundef nonnull align 8 dereferenceable(96) %17) #3
  %18 = load ptr, ptr %8, align 8
  invoke void @_ZN2cv6detail8tracking18TrackerTargetState17setTargetPositionERKNS_6Point_IfEE(ptr noundef nonnull align 8 dereferenceable(24) %16, ptr noundef nonnull align 4 dereferenceable(8) %18)
          to label %19 unwind label %29

19:                                               ; preds = %6
  %20 = load i32, ptr %9, align 4
  invoke void @_ZN2cv6detail8tracking18TrackerTargetState14setTargetWidthEi(ptr noundef nonnull align 8 dereferenceable(24) %16, i32 noundef %20)
          to label %21 unwind label %29

21:                                               ; preds = %19
  %22 = load i32, ptr %10, align 4
  invoke void @_ZN2cv6detail8tracking18TrackerTargetState15setTargetHeightEi(ptr noundef nonnull align 8 dereferenceable(24) %16, i32 noundef %22)
          to label %23 unwind label %29

23:                                               ; preds = %21
  %24 = load i8, ptr %11, align 1
  %25 = trunc i8 %24 to i1
  invoke void @_ZN2cv6detail8tracking32TrackerStateEstimatorAdaBoosting29TrackerAdaBoostingTargetState11setTargetFgEb(ptr noundef nonnull align 8 dereferenceable(128) %16, i1 noundef zeroext %25)
          to label %26 unwind label %29

26:                                               ; preds = %23
  %27 = load ptr, ptr %12, align 8
  invoke void @_ZN2cv6detail8tracking32TrackerStateEstimatorAdaBoosting29TrackerAdaBoostingTargetState18setTargetResponsesERKNS_3MatE(ptr noundef nonnull align 8 dereferenceable(128) %16, ptr noundef nonnull align 8 dereferenceable(96) %27)
          to label %28 unwind label %29

28:                                               ; preds = %26
  ret void

29:                                               ; preds = %26, %23, %21, %19, %6
  %30 = landingpad { ptr, i32 }
          cleanup
  %31 = extractvalue { ptr, i32 } %30, 0
  store ptr %31, ptr %13, align 8
  %32 = extractvalue { ptr, i32 } %30, 1
  store i32 %32, ptr %14, align 4
  call void @_ZN2cv3MatD1Ev(ptr noundef nonnull align 8 dereferenceable(96) %17) #3
  call void @_ZN2cv6detail8tracking18TrackerTargetStateD2Ev(ptr noundef nonnull align 8 dereferenceable(24) %16) #3
  br label %33

33:                                               ; preds = %29
  %34 = load ptr, ptr %13, align 8
  %35 = load i32, ptr %14, align 4
  %36 = insertvalue { ptr, i32 } poison, ptr %34, 0
  %37 = insertvalue { ptr, i32 } %36, i32 %35, 1
  resume { ptr, i32 } %37
}