; Function Attrs: mustprogress uwtable
define void @_ZN2cv6detail8tracking32TrackerStateEstimatorAdaBoosting29TrackerAdaBoostingTargetStateC2ERKNS_6Point_IfEEiibRKNS_3MatE(ptr noundef nonnull align 8 dereferenceable(128) %0, ptr noundef nonnull align 4 dereferenceable(8) %1, i32 noundef %2, i32 noundef %3, i1 noundef zeroext %4, ptr noundef nonnull align 8 dereferenceable(96) %5) unnamed_addr #3 align 2 personality ptr @__gxx_personality_v0 {
  %7 = getelementptr inbounds i8, ptr %0, i64 8
  store <2 x float> zeroinitializer, ptr %7, align 8
  store ptr getelementptr inbounds inrange(-16, 16) (i8, ptr @_ZTVN2cv6detail8tracking32TrackerStateEstimatorAdaBoosting29TrackerAdaBoostingTargetStateE, i64 16), ptr %0, align 8
  %8 = getelementptr inbounds i8, ptr %0, i64 32
  tail call void @_ZN2cv3MatC1Ev(ptr noundef nonnull align 8 dereferenceable(96) %8) #19
  invoke void @_ZN2cv6detail8tracking18TrackerTargetState17setTargetPositionERKNS_6Point_IfEE(ptr noundef nonnull align 8 dereferenceable(24) %0, ptr noundef nonnull align 4 dereferenceable(8) %1)
          to label %9 unwind label %15

9:                                                ; preds = %6
  invoke void @_ZN2cv6detail8tracking18TrackerTargetState14setTargetWidthEi(ptr noundef nonnull align 8 dereferenceable(24) %0, i32 noundef %2)
          to label %10 unwind label %15

10:                                               ; preds = %9
  invoke void @_ZN2cv6detail8tracking18TrackerTargetState15setTargetHeightEi(ptr noundef nonnull align 8 dereferenceable(24) %0, i32 noundef %3)
          to label %11 unwind label %15

11:                                               ; preds = %10
  %12 = zext i1 %4 to i8
  %13 = getelementptr inbounds i8, ptr %0, i64 24
  store i8 %12, ptr %13, align 8
  %14 = invoke noundef nonnull align 8 dereferenceable(96) ptr @_ZN2cv3MataSERKS0_(ptr noundef nonnull align 8 dereferenceable(96) %8, ptr noundef nonnull align 8 dereferenceable(96) %5)
          to label %_ZN2cv6detail8tracking32TrackerStateEstimatorAdaBoosting29TrackerAdaBoostingTargetState18setTargetResponsesERKNS_3MatE.exit unwind label %15

_ZN2cv6detail8tracking32TrackerStateEstimatorAdaBoosting29TrackerAdaBoostingTargetState18setTargetResponsesERKNS_3MatE.exit: ; preds = %11
  ret void

15:                                               ; preds = %11, %10, %9, %6
  %16 = landingpad { ptr, i32 }
          cleanup
  tail call void @_ZN2cv3MatD1Ev(ptr noundef nonnull align 8 dereferenceable(96) %8) #19
  resume { ptr, i32 } %16
}